target datalayout = "e-m:e-p270:32:32-p271:32:32-p272:64:64-i64:64-i128:128-f80:128-n8:16:32:64-S128"
target triple = "x86_64-unknown-linux-gnu"

%"class.base::SampleMap" = type { %"class.base::HistogramSamples", %"class.std::map" }
%"class.base::HistogramSamples" = type { ptr, %"struct.base::HistogramSamples::Metadata", ptr }
%"struct.base::HistogramSamples::Metadata" = type <{ i64, i64, i32, [4 x i8] }>
%"class.std::map" = type { %"class.std::_Rb_tree" }
%"class.std::_Rb_tree" = type { %"struct.std::_Rb_tree<int, std::pair<const int, int>, std::_Select1st<std::pair<const int, int>>, std::less<int>>::_Rb_tree_impl" }
%"struct.std::_Rb_tree<int, std::pair<const int, int>, std::_Select1st<std::pair<const int, int>>, std::less<int>>::_Rb_tree_impl" = type { %"struct.std::_Rb_tree_key_compare", %"struct.std::_Rb_tree_header" }
%"struct.std::_Rb_tree_key_compare" = type { %"struct.std::less" }
%"struct.std::less" = type { i8 }
%"struct.std::_Rb_tree_header" = type { %"struct.std::_Rb_tree_node_base", i64 }
%"struct.std::_Rb_tree_node_base" = type { i32, ptr, ptr, ptr }

; Function Attrs: mustprogress uwtable
define dso_local void @_ZN4base9SampleMap10AccumulateEii(ptr noundef nonnull align 8 dereferenceable(88) %this, i32 noundef %value, i32 noundef %count) unnamed_addr #0 align 2 {
entry:
  %this.addr = alloca ptr, align 8
  %value.addr = alloca i32, align 4
  %count.addr = alloca i32, align 4
  store ptr %this, ptr %this.addr, align 8
  store i32 %value, ptr %value.addr, align 4
  store i32 %count, ptr %count.addr, align 4
  %this1 = load ptr, ptr %this.addr, align 8
  %0 = load i32, ptr %count.addr, align 4
  %sample_counts_ = getelementptr inbounds %"class.base::SampleMap", ptr %this1, i32 0, i32 1
  %call = call noundef nonnull align 4 dereferenceable(4) ptr @_ZNSt3mapIiiSt4lessIiESaISt4pairIKiiEEEixERS3_(ptr noundef nonnull align 8 dereferenceable(48) %sample_counts_, ptr noundef nonnull align 4 dereferenceable(4) %value.addr)
  %1 = load i32, ptr %call, align 4
  %add = add nsw i32 %1, %0
  store i32 %add, ptr %call, align 4
  %2 = load i32, ptr %count.addr, align 4
  %conv = sext i32 %2 to i64
  %3 = load i32, ptr %value.addr, align 4
  %conv2 = sext i32 %3 to i64
  %mul = mul nsw i64 %conv, %conv2
  call void @_ZN4base16HistogramSamples11IncreaseSumEl(ptr noundef nonnull align 8 dereferenceable(40) %this1, i64 noundef %mul)
  %4 = load i32, ptr %count.addr, align 4
  call void @_ZN4base16HistogramSamples22IncreaseRedundantCountEi(ptr noundef nonnull align 8 dereferenceable(40) %this1, i32 noundef %4)
  ret void
}