; Function Attrs: mustprogress uwtable
define dso_local void @_ZN4base9SampleMap10AccumulateEii(ptr noundef nonnull align 8 dereferenceable(88) %this, i32 noundef %value, i32 noundef %count) unnamed_addr #0 align 2 {
entry:
  %value.addr = alloca i32, align 4
  store i32 %value, ptr %value.addr, align 4
  %sample_counts_ = getelementptr inbounds i8, ptr %this, i64 40
  %call = call noundef nonnull align 4 dereferenceable(4) ptr @_ZNSt3mapIiiSt4lessIiESaISt4pairIKiiEEEixERS3_(ptr noundef nonnull align 8 dereferenceable(48) %sample_counts_, ptr noundef nonnull align 4 dereferenceable(4) %value.addr)
  %0 = load i32, ptr %call, align 4
  %add = add nsw i32 %0, %count
  store i32 %add, ptr %call, align 4
  %conv = sext i32 %count to i64
  %1 = load i32, ptr %value.addr, align 4
  %conv2 = sext i32 %1 to i64
  %mul = mul nsw i64 %conv2, %conv
  call void @_ZN4base16HistogramSamples11IncreaseSumEl(ptr noundef nonnull align 8 dereferenceable(40) %this, i64 noundef %mul)
  call void @_ZN4base16HistogramSamples22IncreaseRedundantCountEi(ptr noundef nonnull align 8 dereferenceable(40) %this, i32 noundef %count)
  ret void
}